ccopy_reg
_reconstructor
p0
(cbioflow.bio_db_parsers.reactomeParser
ReactomeParser
p1
c__builtin__
object
p2
Ntp3
Rp4
(dp5
S'PathwaySteps'
p6
(dp7
S'PathwayStep1'
p8
(dp9
S'nextStep'
p10
(lp11
S'PathwayStep2'
p12
asS'components'
p13
(lp14
S'BiochemicalReaction8542'
p15
asssS'Protein_Collections'
p16
(dp17
S'Protein2'
p18
(dp19
S'cellularLocation'
p20
S'CellularLocationVocabulary'
p21
sS'displayName'
p22
S'K48pUb- BIRC2,3,4'
p23
sS'collectionMembers'
p24
(lp25
S'Protein1'
p26
asS'references'
p27
(dp28
S'name'
p29
(lp30
ssssS'ProteinRefs'
p31
(dp32
S'ProteinReference8676'
p33
(dp34
S'organism'
p35
S'Human herpesvirus 8'
p36
sg29
(lp37
S'ORF71'
p38
asS'UniProt'
p39
S'Q76RF1'
p40
ssS'ProteinReference1'
p41
(dp42
g29
(lp43
S'DNM1L'
p44
aS'K48polyUb-cIAP2'
p45
aS'DRP1'
p46
aS'DLP1'
p47
aS'K48polyUB-BIRC'
p48
asS'UniProt'
p49
S'O00429'
p50
sssS'BioSources'
p51
(dp52
S'BioSource1'
p53
S'Homo sapiens'
p54
sS'BioSource2'
p55
g36
ssS'Degradations'
p56
(dp57
S'Degradation1'
p58
(dp59
g22
S'Degradation of ubiquitinated SMAD3'
p60
sg27
(dp61
g29
(lp62
ssS'left'
p63
(lp64
S'Complex1'
p65
asssS'DnaRefs'
p66
(dp67
S'DnaReference1'
p68
(dp69
g29
(lp70
S'BBC3'
p71
asS'ENSEMBL'
p72
S'ENSG00000105327'
p73
sssS'CellularLocations'
p74
(dp75
S'CellularLocationVocabulary1'
p76
S'extracellular region'
p77
ssS'ModificationFeatures'
p78
(dp79
S'ModificationFeature1'
p80
(dp81
S'modification'
p82
S'myristoylated residue'
p83
sS'ID'
p84
g80
sS'location'
p85
S'497'
p86
sssS'Modulations'
p87
(dp88
S'Modulation1'
p89
(dp90
S'controlled'
p91
S'Protein1'
p92
sS'controlType'
p93
S'ACTIVATION'
p94
sS'controller'
p95
S'Protein1'
p96
sg22
S"'Guanylyl cyclase\n    activating protein 2 (GCAP2) (Guanylate cyclase activator 1B)' positively regulates 'cyclase\n     activity of Guanylyl cyclase [integral to membrane]'"
p97
sssS'Dnas'
p98
(dp99
S'Dna1'
p100
(dp101
g20
S'CellularLocationVocabulary1'
p102
sg22
S'LMNA gene'
p103
sg27
g69
sssS'parsed'
p104
I01
sS'Catalysises'
p105
(dp106
S'Catalysis1'
p107
(dp108
S'ControlType'
p109
S'ACTIVATION'
p110
sg95
g92
sg91
S'BiochemicalReaction1'
p111
ssS'TemplateReactionRegulation1'
p112
(dp113
g91
S'TemplateReaction1'
p114
sg95
S'Complex1'
p115
sg109
S'ACTIVATION'
p116
ssS'Control1'
p117
(dp118
g91
S'BiochemicalReaction1'
p119
sg95
S'Complex1'
p120
sg109
S'ACTIVATION'
p121
sssS'TemplateReactions'
p122
(dp123
S'TemplateReaction1'
p124
(dp125
g22
S'Expression of IFN-beta'
p126
sg27
(dp127
g29
(lp128
ssssS'Complexes'
p129
(dp130
S'Complex1'
p131
(dp132
g20
S'CellularLocationVocabulary1'
p133
sg22
S'HPGD dimer'
p134
sS'parts'
p135
(lp136
S'SmallMolecule1'
p137
asg27
(dp138
g29
(lp139
ssssS'SmallMoleculeRefs'
p140
(dp141
S'SmallMoleculeReference1'
p142
(dp143
S'ChEBI'
p144
S'25935'
p145
sg29
(lp146
S'perhydroxyl radical'
p147
aS'Oxomethane'
p148
aS'hydrogen dioxide'
p149
aS'hydroperoxy radical'
p150
aS'(HO2)(.)'
p151
aS'hydroperoxyl'
p152
aS'dioxidanyl'
p153
aS'Methylene oxide'
p154
aS'Methanal'
p155
aS'HO2(.)'
p156
aS'peroxyl radical'
p157
aS'Oxomethylene'
p158
aS'formaldehyde'
p159
aS'hydroperoxo'
p160
asssS'Pathways'
p161
(dp162
S'Pathway2'
p163
(dp164
g22
S'Na+/Cl- dependent neurotransmitter transporters'
p165
sg27
(dp166
g29
(lp167
ssg13
(lp168
sS'PathwayStep'
p169
(lp170
S'PathwayStep1'
p171
assS'Pathway1'
p172
(dp173
g22
S'Amine compound SLC transporters'
p174
sg27
(dp175
g29
(lp176
S'BBC3'
p177
assg13
(lp178
S'Pathway2'
p179
asg169
(lp180
sssS'PhysicalEntity_Collections'
p181
(dp182
sS'RnaRefs'
p183
(dp184
S'RnaReference1'
p185
(dp186
S'miRBase'
p187
S'miR0003560'
p188
sS'EMBL'
p189
S'X04293'
p190
sg29
(lp191
S'IL1B'
p192
aS'IL1B mRNA'
p193
asS'ENSEMBL'
p194
S'ENST00000263341'
p195
sssS'Proteins'
p196
(dp197
S'Protein1'
p198
(dp199
g20
S'CellularLocationVocabulary1'
p200
sg22
S'K48pUb-BIRC3'
p201
sg27
g42
sg82
(lp202
(dp203
g82
g83
sg84
g80
sg85
g86
sasssS'SeqSite'
p204
(dp205
S'SequenceSite1'
p206
g86
ssS'Rnas'
p207
(dp208
S'Rna1'
p209
(dp210
g20
S'CellularLocationVocabulary1'
p211
sg22
S'IL1B mRNA'
p212
sg27
g186
sssS'Complex_Collections'
p213
(dp214
S'Complex2'
p215
(dp216
g20
S'CellularLocationVocabulary1'
p217
sg22
S'DISC'
p218
sg24
(lp219
S'Complex1'
p220
aS'Dna1'
p221
aS'Protein2'
p222
asg27
(dp223
g29
(lp224
S'death-inducing signaling complex'
p225
assssS'SmallMolecule_Collections'
p226
(dp227
S'SmallMolecule1'
p228
(dp229
g20
S'CellularLocationVocabulary1'
p230
sg22
S'PIPs'
p231
sg24
(lp232
S'SmallMolecule2'
p233
asg27
(dp234
g29
(lp235
S'PI4P,PI(4,5)P2,PIP3'
p236
assssS'Dna_Collections'
p237
(dp238
sS'Rna_Collections'
p239
(dp240
sS'SeqModVoc'
p241
(dp242
S'SequenceModificationVocabulary1'
p243
g83
ssS'tree'
p244
g0
(cxml.etree.ElementTree
ElementTree
p245
g2
Ntp246
Rp247
(dp248
S'_root'
p249
g0
(cxml.etree.ElementTree
Element
p250
g2
Ntp251
Rp252
(dp253
S'text'
p254
S'\n\n  '
p255
sS'attrib'
p256
(dp257
S'{http://www.w3.org/XML/1998/namespace}base'
p258
S'http://www.reactome.org/biopax/54/48887#'
p259
ssS'tag'
p260
S'{http://www.w3.org/1999/02/22-rdf-syntax-ns#}RDF'
p261
sS'_children'
p262
(lp263
g0
(g250
g2
Ntp264
Rp265
(dp266
g254
S'\n    '
p267
sg256
(dp268
S'{http://www.w3.org/1999/02/22-rdf-syntax-ns#}about'
p269
S''
p270
ssg260
S'{http://www.w3.org/2002/07/owl#}Ontology'
p271
sS'tail'
p272
S'\n\n  '
p273
sg262
(lp274
g0
(g250
g2
Ntp275
Rp276
(dp277
g256
(dp278
S'{http://www.w3.org/1999/02/22-rdf-syntax-ns#}resource'
p279
S'http://www.biopax.org/release/biopax-level3.owl'
p280
ssg260
S'{http://www.w3.org/2002/07/owl#}imports'
p281
sg272
S'\n  '
p282
sg262
(lp283
sbasbag0
(g250
g2
Ntp284
Rp285
(dp286
g254
S'\n    '
p287
sg256
(dp288
S'{http://www.w3.org/1999/02/22-rdf-syntax-ns#}ID'
p289
g53
ssg260
S'{http://www.biopax.org/release/biopax-level3.owl#}BioSource'
p290
sg272
S'\n\n  '
p291
sg262
(lp292
g0
(g250
g2
Ntp293
Rp294
(dp295
g254
g54
sg256
(dp296
S'{http://www.w3.org/1999/02/22-rdf-syntax-ns#}datatype'
p297
S'http://www.w3.org/2001/XMLSchema#string'
p298
ssg260
S'{http://www.biopax.org/release/biopax-level3.owl#}name'
p299
sg272
S'\n  '
p300
sg262
(lp301
sbasbag0
(g250
g2
Ntp302
Rp303
(dp304
g254
S'\n    '
p305
sg256
(dp306
g289
g76
ssg260
S'{http://www.biopax.org/release/biopax-level3.owl#}CellularLocationVocabulary'
p307
sg272
S'\n\n  '
p308
sg262
(lp309
g0
(g250
g2
Ntp310
Rp311
(dp312
g254
g77
sg256
(dp313
g297
S'http://www.w3.org/2001/XMLSchema#string'
p314
ssg260
S'{http://www.biopax.org/release/biopax-level3.owl#}term'
p315
sg272
S'\n  '
p316
sg262
(lp317
sbasbag0
(g250
g2
Ntp318
Rp319
(dp320
g254
S'\n    '
p321
sg256
(dp322
g289
g243
ssg260
S'{http://www.biopax.org/release/biopax-level3.owl#}SequenceModificationVocabulary'
p323
sg272
S'\n\n  '
p324
sg262
(lp325
g0
(g250
g2
Ntp326
Rp327
(dp328
g254
g83
sg256
(dp329
g297
S'http://www.w3.org/2001/XMLSchema#string'
p330
ssg260
g315
sg272
S'\n  '
p331
sg262
(lp332
sbasbag0
(g250
g2
Ntp333
Rp334
(dp335
g254
S'\n    '
p336
sg256
(dp337
g289
g206
ssg260
S'{http://www.biopax.org/release/biopax-level3.owl#}SequenceSite'
p338
sg272
S'\n\n  '
p339
sg262
(lp340
g0
(g250
g2
Ntp341
Rp342
(dp343
g254
g86
sg256
(dp344
g297
S'http://www.w3.org/2001/XMLSchema#int'
p345
ssg260
S'{http://www.biopax.org/release/biopax-level3.owl#}sequencePosition'
p346
sg272
S'\n    '
p347
sg262
(lp348
sbag0
(g250
g2
Ntp349
Rp350
(dp351
g254
S'EQUAL'
p352
sg256
(dp353
g297
S'http://www.w3.org/2001/XMLSchema#string'
p354
ssg260
S'{http://www.biopax.org/release/biopax-level3.owl#}positionStatus'
p355
sg272
S'\n  '
p356
sg262
(lp357
sbasbag0
(g250
g2
Ntp358
Rp359
(dp360
g254
S'\n    '
p361
sg256
(dp362
g289
g68
ssg260
S'{http://www.biopax.org/release/biopax-level3.owl#}DnaReference'
p363
sg272
S'\n\n  '
p364
sg262
(lp365
g0
(g250
g2
Ntp366
Rp367
(dp368
g256
(dp369
g279
S'#BioSource1'
p370
ssg260
S'{http://www.biopax.org/release/biopax-level3.owl#}organism'
p371
sg272
S'\n    '
p372
sg262
(lp373
sbag0
(g250
g2
Ntp374
Rp375
(dp376
g254
S'ENSEMBL:ENSG00000105327 BBC3'
p377
sg256
(dp378
g297
S'http://www.w3.org/2001/XMLSchema#string'
p379
ssg260
g299
sg272
S'\n    '
p380
sg262
(lp381
sbag0
(g250
g2
Ntp382
Rp383
(dp384
g254
g71
sg256
(dp385
g297
S'http://www.w3.org/2001/XMLSchema#string'
p386
ssg260
g299
sg272
S'\n  '
p387
sg262
(lp388
sbasbag0
(g250
g2
Ntp389
Rp390
(dp391
g254
S'\n    '
p392
sg256
(dp393
g289
g185
ssg260
S'{http://www.biopax.org/release/biopax-level3.owl#}RnaReference'
p394
sg272
S'\n\n  '
p395
sg262
(lp396
g0
(g250
g2
Ntp397
Rp398
(dp399
g256
(dp400
g279
S'#BioSource1'
p401
ssg260
g371
sg272
S'\n    '
p402
sg262
(lp403
sbag0
(g250
g2
Ntp404
Rp405
(dp406
g254
S'miRBase:miR0003560 MIR92b'
p407
sg256
(dp408
g297
S'http://www.w3.org/2001/XMLSchema#string'
p409
ssg260
g299
sg272
S'\n    '
p410
sg262
(lp411
sbag0
(g250
g2
Ntp412
Rp413
(dp414
g254
S'EMBL:X04293 U5 snRNA'
p415
sg256
(dp416
g297
S'http://www.w3.org/2001/XMLSchema#string'
p417
ssg260
g299
sg272
S'\n    '
p418
sg262
(lp419
sbag0
(g250
g2
Ntp420
Rp421
(dp422
g254
S'ENSEMBL:ENST00000263341 IL1B'
p423
sg256
(dp424
g297
S'http://www.w3.org/2001/XMLSchema#string'
p425
ssg260
g299
sg272
S'\n    '
p426
sg262
(lp427
sbag0
(g250
g2
Ntp428
Rp429
(dp430
g254
g193
sg256
(dp431
g297
S'http://www.w3.org/2001/XMLSchema#string'
p432
ssg260
g299
sg272
S'\n    '
p433
sg262
(lp434
sbag0
(g250
g2
Ntp435
Rp436
(dp437
g254
g192
sg256
(dp438
g297
S'http://www.w3.org/2001/XMLSchema#string'
p439
ssg260
g299
sg272
S'\n  '
p440
sg262
(lp441
sbasbag0
(g250
g2
Ntp442
Rp443
(dp444
g254
S'\n    '
p445
sg256
(dp446
g289
g142
ssg260
S'{http://www.biopax.org/release/biopax-level3.owl#}SmallMoleculeReference'
p447
sg272
S'\n\n  '
p448
sg262
(lp449
g0
(g250
g2
Ntp450
Rp451
(dp452
g254
S'hydroperoxyl [ChEBI:25935]'
p453
sg256
(dp454
g297
S'http://www.w3.org/2001/XMLSchema#string'
p455
ssg260
g299
sg272
S'\n    '
p456
sg262
(lp457
sbag0
(g250
g2
Ntp458
Rp459
(dp460
g254
g152
sg256
(dp461
g297
S'http://www.w3.org/2001/XMLSchema#string'
p462
ssg260
g299
sg272
S'\n    '
p463
sg262
(lp464
sbag0
(g250
g2
Ntp465
Rp466
(dp467
g254
g156
sg256
(dp468
g297
S'http://www.w3.org/2001/XMLSchema#string'
p469
ssg260
g299
sg272
S'\n    '
p470
sg262
(lp471
sbag0
(g250
g2
Ntp472
Rp473
(dp474
g254
g149
sg256
(dp475
g297
S'http://www.w3.org/2001/XMLSchema#string'
p476
ssg260
g299
sg272
S'\n    '
p477
sg262
(lp478
sbag0
(g250
g2
Ntp479
Rp480
(dp481
g254
g147
sg256
(dp482
g297
S'http://www.w3.org/2001/XMLSchema#string'
p483
ssg260
g299
sg272
S'\n    '
p484
sg262
(lp485
sbag0
(g250
g2
Ntp486
Rp487
(dp488
g254
g160
sg256
(dp489
g297
S'http://www.w3.org/2001/XMLSchema#string'
p490
ssg260
g299
sg272
S'\n    '
p491
sg262
(lp492
sbag0
(g250
g2
Ntp493
Rp494
(dp495
g254
g151
sg256
(dp496
g297
S'http://www.w3.org/2001/XMLSchema#string'
p497
ssg260
g299
sg272
S'\n    '
p498
sg262
(lp499
sbag0
(g250
g2
Ntp500
Rp501
(dp502
g254
g157
sg256
(dp503
g297
S'http://www.w3.org/2001/XMLSchema#string'
p504
ssg260
g299
sg272
S'\n    '
p505
sg262
(lp506
sbag0
(g250
g2
Ntp507
Rp508
(dp509
g254
g150
sg256
(dp510
g297
S'http://www.w3.org/2001/XMLSchema#string'
p511
ssg260
g299
sg272
S'\n    '
p512
sg262
(lp513
sbag0
(g250
g2
Ntp514
Rp515
(dp516
g254
g153
sg256
(dp517
g297
S'http://www.w3.org/2001/XMLSchema#string'
p518
ssg260
g299
sg272
S'\n  '
p519
sg262
(lp520
sbasbag0
(g250
g2
Ntp521
Rp522
(dp523
g254
S'\n    '
p524
sg256
(dp525
g289
g41
ssg260
S'{http://www.biopax.org/release/biopax-level3.owl#}ProteinReference'
p526
sg272
S'\n\n  '
p527
sg262
(lp528
g0
(g250
g2
Ntp529
Rp530
(dp531
g256
(dp532
g279
S'#BioSource1'
p533
ssg260
g371
sg272
S'\n    '
p534
sg262
(lp535
sbag0
(g250
g2
Ntp536
Rp537
(dp538
g254
S'UniProt:O00429 DNM1L'
p539
sg256
(dp540
g297
S'http://www.w3.org/2001/XMLSchema#string'
p541
ssg260
g299
sg272
S'\n    '
p542
sg262
(lp543
sbag0
(g250
g2
Ntp544
Rp545
(dp546
g254
g44
sg256
(dp547
g297
S'http://www.w3.org/2001/XMLSchema#string'
p548
ssg260
g299
sg272
S'\n    '
p549
sg262
(lp550
sbag0
(g250
g2
Ntp551
Rp552
(dp553
g254
g47
sg256
(dp554
g297
S'http://www.w3.org/2001/XMLSchema#string'
p555
ssg260
g299
sg272
S'\n    '
p556
sg262
(lp557
sbag0
(g250
g2
Ntp558
Rp559
(dp560
g254
g46
sg256
(dp561
g297
S'http://www.w3.org/2001/XMLSchema#string'
p562
ssg260
g299
sg272
S'\n    '
p563
sg262
(lp564
sbag0
(g250
g2
Ntp565
Rp566
(dp567
g256
(dp568
g279
S'#UnificationXref99790'
p569
ssg260
S'{http://www.biopax.org/release/biopax-level3.owl#}xref'
p570
sg272
S'\n    '
p571
sg262
(lp572
sbag0
(g250
g2
Ntp573
Rp574
(dp575
g254
S'FUNCTION Functions in '
p576
sg256
(dp577
g297
S'http://www.w3.org/2001/XMLSchema#string'
p578
ssg260
S'{http://www.biopax.org/release/biopax-level3.owl#}comment'
p579
sg272
S'\n  '
p580
sg262
(lp581
sbasbag0
(g250
g2
Ntp582
Rp583
(dp584
g254
S'\n    '
p585
sg256
(dp586
g289
g100
ssg260
S'{http://www.biopax.org/release/biopax-level3.owl#}Dna'
p587
sg272
S'\n\n  '
p588
sg262
(lp589
g0
(g250
g2
Ntp590
Rp591
(dp592
g254
g103
sg256
(dp593
g297
S'http://www.w3.org/2001/XMLSchema#string'
p594
ssg260
S'{http://www.biopax.org/release/biopax-level3.owl#}displayName'
p595
sg272
S'\n    '
p596
sg262
(lp597
sbag0
(g250
g2
Ntp598
Rp599
(dp600
g256
(dp601
g279
S'#CellularLocationVocabulary1'
p602
ssg260
S'{http://www.biopax.org/release/biopax-level3.owl#}cellularLocation'
p603
sg272
S'\n    '
p604
sg262
(lp605
sbag0
(g250
g2
Ntp606
Rp607
(dp608
g256
(dp609
g279
S'#DnaReference1'
p610
ssg260
S'{http://www.biopax.org/release/biopax-level3.owl#}entityReference'
p611
sg272
S'\n  '
p612
sg262
(lp613
sbasbag0
(g250
g2
Ntp614
Rp615
(dp616
g254
S'\n    '
p617
sg256
(dp618
g289
g209
ssg260
S'{http://www.biopax.org/release/biopax-level3.owl#}Rna'
p619
sg272
S'\n\n   '
p620
sg262
(lp621
g0
(g250
g2
Ntp622
Rp623
(dp624
g254
g212
sg256
(dp625
g297
S'http://www.w3.org/2001/XMLSchema#string'
p626
ssg260
g595
sg272
S'\n    '
p627
sg262
(lp628
sbag0
(g250
g2
Ntp629
Rp630
(dp631
g256
(dp632
g279
S'#CellularLocationVocabulary1'
p633
ssg260
g603
sg272
S'\n    '
p634
sg262
(lp635
sbag0
(g250
g2
Ntp636
Rp637
(dp638
g256
(dp639
g279
S'#RnaReference1'
p640
ssg260
g611
sg272
S'\n  '
p641
sg262
(lp642
sbasbag0
(g250
g2
Ntp643
Rp644
(dp645
g254
S'\n    '
p646
sg256
(dp647
g289
S'SmallMolecule2'
p648
ssg260
S'{http://www.biopax.org/release/biopax-level3.owl#}SmallMolecule'
p649
sg272
S'\n\n  '
p650
sg262
(lp651
g0
(g250
g2
Ntp652
Rp653
(dp654
g254
S'CH2O'
p655
sg256
(dp656
g297
S'http://www.w3.org/2001/XMLSchema#string'
p657
ssg260
g595
sg272
S'\n    '
p658
sg262
(lp659
sbag0
(g250
g2
Ntp660
Rp661
(dp662
g254
g155
sg256
(dp663
g297
S'http://www.w3.org/2001/XMLSchema#string'
p664
ssg260
g299
sg272
S'\n    '
p665
sg262
(lp666
sbag0
(g250
g2
Ntp667
Rp668
(dp669
g254
g159
sg256
(dp670
g297
S'http://www.w3.org/2001/XMLSchema#string'
p671
ssg260
g299
sg272
S'\n    '
p672
sg262
(lp673
sbag0
(g250
g2
Ntp674
Rp675
(dp676
g254
g148
sg256
(dp677
g297
S'http://www.w3.org/2001/XMLSchema#string'
p678
ssg260
g299
sg272
S'\n    '
p679
sg262
(lp680
sbag0
(g250
g2
Ntp681
Rp682
(dp683
g254
g158
sg256
(dp684
g297
S'http://www.w3.org/2001/XMLSchema#string'
p685
ssg260
g299
sg272
S'\n    '
p686
sg262
(lp687
sbag0
(g250
g2
Ntp688
Rp689
(dp690
g254
g154
sg256
(dp691
g297
S'http://www.w3.org/2001/XMLSchema#string'
p692
ssg260
g299
sg272
S'\n    '
p693
sg262
(lp694
sbag0
(g250
g2
Ntp695
Rp696
(dp697
g256
(dp698
g279
S'#CellularLocationVocabulary1'
p699
ssg260
g603
sg272
S'\n    '
p700
sg262
(lp701
sbag0
(g250
g2
Ntp702
Rp703
(dp704
g256
(dp705
g279
S'#SmallMoleculeReference1'
p706
ssg260
g611
sg272
S'\n  '
p707
sg262
(lp708
sbasbag0
(g250
g2
Ntp709
Rp710
(dp711
g254
S'\n    '
p712
sg256
(dp713
g289
g228
ssg260
g649
sg272
S'\n\n  '
p714
sg262
(lp715
g0
(g250
g2
Ntp716
Rp717
(dp718
g254
S'Converted from EntitySet in Reactome'
p719
sg256
(dp720
g297
S'http://www.w3.org/2001/XMLSchema#string'
p721
ssg260
g579
sg272
S'\n    '
p722
sg262
(lp723
sbag0
(g250
g2
Ntp724
Rp725
(dp726
g256
(dp727
g279
S'#SmallMolecule2'
p728
ssg260
S'{http://www.biopax.org/release/biopax-level3.owl#}memberPhysicalEntity'
p729
sg272
S'\n    '
p730
sg262
(lp731
sbag0
(g250
g2
Ntp732
Rp733
(dp734
g254
g231
sg256
(dp735
g297
S'http://www.w3.org/2001/XMLSchema#string'
p736
ssg260
g595
sg272
S'\n    '
p737
sg262
(lp738
sbag0
(g250
g2
Ntp739
Rp740
(dp741
g254
g236
sg256
(dp742
g297
S'http://www.w3.org/2001/XMLSchema#string'
p743
ssg260
g299
sg272
S'\n    '
p744
sg262
(lp745
sbag0
(g250
g2
Ntp746
Rp747
(dp748
g256
(dp749
g279
S'#CellularLocationVocabulary1'
p750
ssg260
g603
sg272
S'\n  '
p751
sg262
(lp752
sbasbag0
(g250
g2
Ntp753
Rp754
(dp755
g254
S'\n    '
p756
sg256
(dp757
g289
g131
ssg260
S'{http://www.biopax.org/release/biopax-level3.owl#}Complex'
p758
sg272
S'\n\n  '
p759
sg262
(lp760
g0
(g250
g2
Ntp761
Rp762
(dp763
g254
g134
sg256
(dp764
g297
S'http://www.w3.org/2001/XMLSchema#string'
p765
ssg260
g595
sg272
S'\n    '
p766
sg262
(lp767
sbag0
(g250
g2
Ntp768
Rp769
(dp770
g256
(dp771
g279
S'#CellularLocationVocabulary1'
p772
ssg260
g603
sg272
S'\n    '
p773
sg262
(lp774
sbag0
(g250
g2
Ntp775
Rp776
(dp777
g256
(dp778
g279
S'#SmallMolecule1'
p779
ssg260
S'{http://www.biopax.org/release/biopax-level3.owl#}component'
p780
sg272
S'\n    '
p781
sg262
(lp782
sbag0
(g250
g2
Ntp783
Rp784
(dp785
g256
(dp786
g279
S'#Stoichiometry5722'
p787
ssg260
S'{http://www.biopax.org/release/biopax-level3.owl#}componentStoichiometry'
p788
sg272
S'\n  '
p789
sg262
(lp790
sbasbag0
(g250
g2
Ntp791
Rp792
(dp793
g254
S'\n    '
p794
sg256
(dp795
g289
g215
ssg260
g758
sg272
S'\n\n  '
p796
sg262
(lp797
g0
(g250
g2
Ntp798
Rp799
(dp800
g254
S'Converted from EntitySet in Reactome'
p801
sg256
(dp802
g297
S'http://www.w3.org/2001/XMLSchema#string'
p803
ssg260
g579
sg272
S'\n    '
p804
sg262
(lp805
sbag0
(g250
g2
Ntp806
Rp807
(dp808
g256
(dp809
g279
S'#Complex1'
p810
ssg260
g729
sg272
S'\n    '
p811
sg262
(lp812
sbag0
(g250
g2
Ntp813
Rp814
(dp815
g256
(dp816
g279
S'#Dna1'
p817
ssg260
g729
sg272
S'\n    '
p818
sg262
(lp819
sbag0
(g250
g2
Ntp820
Rp821
(dp822
g256
(dp823
g279
S'#Protein2'
p824
ssg260
g729
sg272
S'\n    '
p825
sg262
(lp826
sbag0
(g250
g2
Ntp827
Rp828
(dp829
g254
g218
sg256
(dp830
g297
S'http://www.w3.org/2001/XMLSchema#string'
p831
ssg260
g595
sg272
S'\n    '
p832
sg262
(lp833
sbag0
(g250
g2
Ntp834
Rp835
(dp836
g254
g225
sg256
(dp837
g297
S'http://www.w3.org/2001/XMLSchema#string'
p838
ssg260
g299
sg272
S'\n    '
p839
sg262
(lp840
sbag0
(g250
g2
Ntp841
Rp842
(dp843
g256
(dp844
g279
S'#CellularLocationVocabulary1'
p845
ssg260
g603
sg272
S'\n  '
p846
sg262
(lp847
sbasbag0
(g250
g2
Ntp848
Rp849
(dp850
g254
S'\n    '
p851
sg256
(dp852
g289
g198
ssg260
S'{http://www.biopax.org/release/biopax-level3.owl#}Protein'
p853
sg272
S'\n\n  '
p854
sg262
(lp855
g0
(g250
g2
Ntp856
Rp857
(dp858
g254
g201
sg256
(dp859
g297
S'http://www.w3.org/2001/XMLSchema#string'
p860
ssg260
g595
sg272
S'\n    '
p861
sg262
(lp862
sbag0
(g250
g2
Ntp863
Rp864
(dp865
g254
g48
sg256
(dp866
g297
S'http://www.w3.org/2001/XMLSchema#string'
p867
ssg260
g299
sg272
S'\n    '
p868
sg262
(lp869
sbag0
(g250
g2
Ntp870
Rp871
(dp872
g254
g45
sg256
(dp873
g297
S'http://www.w3.org/2001/XMLSchema#string'
p874
ssg260
g299
sg272
S'\n    '
p875
sg262
(lp876
sbag0
(g250
g2
Ntp877
Rp878
(dp879
g256
(dp880
g279
S'#CellularLocationVocabulary1'
p881
ssg260
g603
sg272
S'\n    '
p882
sg262
(lp883
sbag0
(g250
g2
Ntp884
Rp885
(dp886
g256
(dp887
g279
S'#ProteinReference1'
p888
ssg260
g611
sg272
S'\n    '
p889
sg262
(lp890
sbag0
(g250
g2
Ntp891
Rp892
(dp893
g256
(dp894
g279
S'#ModificationFeature1'
p895
ssg260
S'{http://www.biopax.org/release/biopax-level3.owl#}feature'
p896
sg272
S'\n    '
p897
sg262
(lp898
sbag0
(g250
g2
Ntp899
Rp900
(dp901
g256
(dp902
g279
S'#FragmentFeature16533'
p903
ssg260
g896
sg272
S'\n    '
p904
sg262
(lp905
sbag0
(g250
g2
Ntp906
Rp907
(dp908
g254
S'Reactome DB_ID: 5675478'
p909
sg256
(dp910
g297
S'http://www.w3.org/2001/XMLSchema#string'
p911
ssg260
g579
sg272
S'\n  '
p912
sg262
(lp913
sbasbag0
(g250
g2
Ntp914
Rp915
(dp916
g254
S'\n    '
p917
sg256
(dp918
g289
g18
ssg260
g853
sg272
S'\n\n   '
p919
sg262
(lp920
g0
(g250
g2
Ntp921
Rp922
(dp923
g254
S'Converted from EntitySet in Reactome'
p924
sg256
(dp925
g297
S'http://www.w3.org/2001/XMLSchema#string'
p926
ssg260
g579
sg272
S'\n    '
p927
sg262
(lp928
sbag0
(g250
g2
Ntp929
Rp930
(dp931
g256
(dp932
g279
S'#Protein1'
p933
ssg260
g729
sg272
S'\n    '
p934
sg262
(lp935
sbag0
(g250
g2
Ntp936
Rp937
(dp938
g254
g23
sg256
(dp939
g297
S'http://www.w3.org/2001/XMLSchema#string'
p940
ssg260
g595
sg272
S'\n    '
p941
sg262
(lp942
sbag0
(g250
g2
Ntp943
Rp944
(dp945
g256
(dp946
g279
S'#CellularLocationVocabulary'
p947
ssg260
g603
sg272
S'\n  '
p948
sg262
(lp949
sbasbag0
(g250
g2
Ntp950
Rp951
(dp952
g254
S'\n    '
p953
sg256
(dp954
g289
S'PhysicalEntity1'
p955
ssg260
S'{http://www.biopax.org/release/biopax-level3.owl#}PhysicalEntity'
p956
sg272
S'\n\n  '
p957
sg262
(lp958
g0
(g250
g2
Ntp959
Rp960
(dp961
g254
S'DFF cleaved DNA fragments'
p962
sg256
(dp963
g297
S'http://www.w3.org/2001/XMLSchema#string'
p964
ssg260
g595
sg272
S'\n    '
p965
sg262
(lp966
sbag0
(g250
g2
Ntp967
Rp968
(dp969
g256
(dp970
g279
S'#CellularLocationVocabulary1'
p971
ssg260
g603
sg272
S'\n  '
p972
sg262
(lp973
sbasbag0
(g250
g2
Ntp974
Rp975
(dp976
g254
S'\n    '
p977
sg256
(dp978
g289
g172
ssg260
S'{http://www.biopax.org/release/biopax-level3.owl#}Pathway'
p979
sg272
S'\n  '
p980
sg262
(lp981
g0
(g250
g2
Ntp982
Rp983
(dp984
g254
g177
sg256
(dp985
g297
S'http://www.w3.org/2001/XMLSchema#string'
p986
ssg260
g299
sg272
S'\n    '
p987
sg262
(lp988
sbag0
(g250
g2
Ntp989
Rp990
(dp991
g256
(dp992
g279
S'#Pathway2'
p993
ssg260
S'{http://www.biopax.org/release/biopax-level3.owl#}pathwayComponent'
p994
sg272
S'\n    '
p995
sg262
(lp996
sbag0
(g250
g2
Ntp997
Rp998
(dp999
g256
(dp1000
g279
S'#BiochemicalReaction1'
p1001
ssg260
g994
sg272
S'\n    '
p1002
sg262
(lp1003
sbag0
(g250
g2
Ntp1004
Rp1005
(dp1006
g256
(dp1007
g279
S'#BioSource1'
p1008
ssg260
g371
sg272
S'\n    '
p1009
sg262
(lp1010
sbag0
(g250
g2
Ntp1011
Rp1012
(dp1013
g254
g174
sg256
(dp1014
g297
S'http://www.w3.org/2001/XMLSchema#string'
p1015
ssg260
g595
sg272
S'\n\n  '
p1016
sg262
(lp1017
sbasbag0
(g250
g2
Ntp1018
Rp1019
(dp1020
g254
S'\n    '
p1021
sg256
(dp1022
g289
g163
ssg260
g979
sg272
S'\n\n   '
p1023
sg262
(lp1024
g0
(g250
g2
Ntp1025
Rp1026
(dp1027
g256
(dp1028
g279
S'#BiochemicalReaction1'
p1029
ssg260
g994
sg272
S'\n    '
p1030
sg262
(lp1031
sbag0
(g250
g2
Ntp1032
Rp1033
(dp1034
g256
(dp1035
g279
S'#PathwayStep1'
p1036
ssg260
S'{http://www.biopax.org/release/biopax-level3.owl#}pathwayOrder'
p1037
sg272
S'\n    '
p1038
sg262
(lp1039
sbag0
(g250
g2
Ntp1040
Rp1041
(dp1042
g256
(dp1043
g279
S'#BioSource1'
p1044
ssg260
g371
sg272
S'\n    '
p1045
sg262
(lp1046
sbag0
(g250
g2
Ntp1047
Rp1048
(dp1049
g254
g165
sg256
(dp1050
g297
S'http://www.w3.org/2001/XMLSchema#string'
p1051
ssg260
g595
sg272
S'\n  '
p1052
sg262
(lp1053
sbasbag0
(g250
g2
Ntp1054
Rp1055
(dp1056
g254
S'\n    '
p1057
sg256
(dp1058
g289
g8
ssg260
S'{http://www.biopax.org/release/biopax-level3.owl#}PathwayStep'
p1059
sg272
S'\n\n  '
p1060
sg262
(lp1061
g0
(g250
g2
Ntp1062
Rp1063
(dp1064
g256
(dp1065
g279
S'#BiochemicalReaction8542'
p1066
ssg260
S'{http://www.biopax.org/release/biopax-level3.owl#}stepProcess'
p1067
sg272
S'\n    '
p1068
sg262
(lp1069
sbag0
(g250
g2
Ntp1070
Rp1071
(dp1072
g256
(dp1073
g279
S'#PathwayStep2'
p1074
ssg260
S'{http://www.biopax.org/release/biopax-level3.owl#}nextStep'
p1075
sg272
S'\n  '
p1076
sg262
(lp1077
sbasbag0
(g250
g2
Ntp1078
Rp1079
(dp1080
g254
S'\n    '
p1081
sg256
(dp1082
g289
g124
ssg260
S'{http://www.biopax.org/release/biopax-level3.owl#}TemplateReaction'
p1083
sg272
S'\n\n  '
p1084
sg262
(lp1085
g0
(g250
g2
Ntp1086
Rp1087
(dp1088
g256
(dp1089
g279
S'#Protein1'
p1090
ssg260
S'{http://www.biopax.org/release/biopax-level3.owl#}product'
p1091
sg272
S'\n    '
p1092
sg262
(lp1093
sbag0
(g250
g2
Ntp1094
Rp1095
(dp1096
g254
g126
sg256
(dp1097
g297
S'http://www.w3.org/2001/XMLSchema#string'
p1098
ssg260
g595
sg272
S'\n  '
p1099
sg262
(lp1100
sbasbag0
(g250
g2
Ntp1101
Rp1102
(dp1103
g254
S'\n    '
p1104
sg256
(dp1105
g289
g58
ssg260
S'{http://www.biopax.org/release/biopax-level3.owl#}Degradation'
p1106
sg272
S'\n\n  '
p1107
sg262
(lp1108
g0
(g250
g2
Ntp1109
Rp1110
(dp1111
g256
(dp1112
g279
S'#Complex1'
p1113
ssg260
S'{http://www.biopax.org/release/biopax-level3.owl#}left'
p1114
sg272
S'\n    '
p1115
sg262
(lp1116
sbag0
(g250
g2
Ntp1117
Rp1118
(dp1119
g254
g60
sg256
(dp1120
g297
S'http://www.w3.org/2001/XMLSchema#string'
p1121
ssg260
g595
sg272
S'\n  '
p1122
sg262
(lp1123
sbasbag0
(g250
g2
Ntp1124
Rp1125
(dp1126
g254
S'\n    '
p1127
sg256
(dp1128
g289
S'BiochemicalReaction1'
p1129
ssg260
S'{http://www.biopax.org/release/biopax-level3.owl#}BiochemicalReaction'
p1130
sg272
S'\n\n  '
p1131
sg262
(lp1132
g0
(g250
g2
Ntp1133
Rp1134
(dp1135
g254
S'LEFT-TO-RIGHT'
p1136
sg256
(dp1137
g297
S'http://www.w3.org/2001/XMLSchema#string'
p1138
ssg260
S'{http://www.biopax.org/release/biopax-level3.owl#}conversionDirection'
p1139
sg272
S'\n    '
p1140
sg262
(lp1141
sbag0
(g250
g2
Ntp1142
Rp1143
(dp1144
g256
(dp1145
g279
S'#Protein1'
p1146
ssg260
g1114
sg272
S'\n    '
p1147
sg262
(lp1148
sbag0
(g250
g2
Ntp1149
Rp1150
(dp1151
g256
(dp1152
g279
S'#PhysicalEntity1'
p1153
ssg260
g1114
sg272
S'\n    '
p1154
sg262
(lp1155
sbag0
(g250
g2
Ntp1156
Rp1157
(dp1158
g256
(dp1159
g279
S'#Complex1'
p1160
ssg260
S'{http://www.biopax.org/release/biopax-level3.owl#}right'
p1161
sg272
S'\n    '
p1162
sg262
(lp1163
sbag0
(g250
g2
Ntp1164
Rp1165
(dp1166
g254
S'DRP1'
p1167
sg256
(dp1168
g297
S'http://www.w3.org/2001/XMLSchema#string'
p1169
ssg260
g299
sg272
S'\n    '
p1170
sg262
(lp1171
sbag0
(g250
g2
Ntp1172
Rp1173
(dp1174
g254
S'6.3.2.19'
p1175
sg256
(dp1176
g297
S'http://www.w3.org/2001/XMLSchema#string'
p1177
ssg260
S'{http://www.biopax.org/release/biopax-level3.owl#}eCNumber'
p1178
sg272
S'\n    '
p1179
sg262
(lp1180
sbag0
(g250
g2
Ntp1181
Rp1182
(dp1183
g254
S'BIRC2/3 (cIAP1/2) is autoubiquitinated'
p1184
sg256
(dp1185
g297
S'http://www.w3.org/2001/XMLSchema#string'
p1186
ssg260
g595
sg272
S'\n  '
p1187
sg262
(lp1188
sbasbag0
(g250
g2
Ntp1189
Rp1190
(dp1191
g254
S'\n    '
p1192
sg256
(dp1193
g289
g107
ssg260
S'{http://www.biopax.org/release/biopax-level3.owl#}Catalysis'
p1194
sg272
S'\n\n  '
p1195
sg262
(lp1196
g0
(g250
g2
Ntp1197
Rp1198
(dp1199
g256
(dp1200
g279
S'#Protein1'
p1201
ssg260
S'{http://www.biopax.org/release/biopax-level3.owl#}controller'
p1202
sg272
S'\n    '
p1203
sg262
(lp1204
sbag0
(g250
g2
Ntp1205
Rp1206
(dp1207
g256
(dp1208
g279
S'#BiochemicalReaction1'
p1209
ssg260
S'{http://www.biopax.org/release/biopax-level3.owl#}controlled'
p1210
sg272
S'\n    '
p1211
sg262
(lp1212
sbag0
(g250
g2
Ntp1213
Rp1214
(dp1215
g254
g110
sg256
(dp1216
g297
S'http://www.w3.org/2001/XMLSchema#string'
p1217
ssg260
S'{http://www.biopax.org/release/biopax-level3.owl#}controlType'
p1218
sg272
S'\n  '
p1219
sg262
(lp1220
sbasbag0
(g250
g2
Ntp1221
Rp1222
(dp1223
g254
S'\n    '
p1224
sg256
(dp1225
g289
g117
ssg260
S'{http://www.biopax.org/release/biopax-level3.owl#}Control'
p1226
sg272
S'\n\n  '
p1227
sg262
(lp1228
g0
(g250
g2
Ntp1229
Rp1230
(dp1231
g254
S"'DISC:procaspase-8:FLIP(S) [plasma membrane]'\n     positively regulates 'RIPK3 binds RIPK1'"
p1232
sg256
(dp1233
g297
S'http://www.w3.org/2001/XMLSchema#string'
p1234
ssg260
g595
sg272
S'\n    '
p1235
sg262
(lp1236
sbag0
(g250
g2
Ntp1237
Rp1238
(dp1239
g254
g121
sg256
(dp1240
g297
S'http://www.w3.org/2001/XMLSchema#string'
p1241
ssg260
g1218
sg272
S'\n    '
p1242
sg262
(lp1243
sbag0
(g250
g2
Ntp1244
Rp1245
(dp1246
g256
(dp1247
g279
S'#Complex1'
p1248
ssg260
g1202
sg272
S'\n    '
p1249
sg262
(lp1250
sbag0
(g250
g2
Ntp1251
Rp1252
(dp1253
g256
(dp1254
g279
S'#BiochemicalReaction1'
p1255
ssg260
g1210
sg272
S'\n  '
p1256
sg262
(lp1257
sbasbag0
(g250
g2
Ntp1258
Rp1259
(dp1260
g254
S'\n    '
p1261
sg256
(dp1262
g289
g112
ssg260
S'{http://www.biopax.org/release/biopax-level3.owl#}TemplateReactionRegulation'
p1263
sg272
S'\n\n  '
p1264
sg262
(lp1265
g0
(g250
g2
Ntp1266
Rp1267
(dp1268
g254
S"'IRF3 bound to IFN-beta promoter [nucleoplasm]' positively regulates 'Expression of IFN-beta'"
p1269
sg256
(dp1270
g297
S'http://www.w3.org/2001/XMLSchema#string'
p1271
ssg260
g595
sg272
S'\n    '
p1272
sg262
(lp1273
sbag0
(g250
g2
Ntp1274
Rp1275
(dp1276
g254
g116
sg256
(dp1277
g297
S'http://www.w3.org/2001/XMLSchema#string'
p1278
ssg260
g1218
sg272
S'\n    '
p1279
sg262
(lp1280
sbag0
(g250
g2
Ntp1281
Rp1282
(dp1283
g256
(dp1284
g279
S'#Complex1'
p1285
ssg260
g1202
sg272
S'\n    '
p1286
sg262
(lp1287
sbag0
(g250
g2
Ntp1288
Rp1289
(dp1290
g256
(dp1291
g279
S'#TemplateReaction1'
p1292
ssg260
g1210
sg272
S'\n  '
p1293
sg262
(lp1294
sbasbag0
(g250
g2
Ntp1295
Rp1296
(dp1297
g254
S'\n    '
p1298
sg256
(dp1299
g289
g89
ssg260
S'{http://www.biopax.org/release/biopax-level3.owl#}Modulation'
p1300
sg272
S'\n\n  '
p1301
sg262
(lp1302
g0
(g250
g2
Ntp1303
Rp1304
(dp1305
g254
g97
sg256
(dp1306
g297
S'http://www.w3.org/2001/XMLSchema#string'
p1307
ssg260
g595
sg272
S'\n    '
p1308
sg262
(lp1309
sbag0
(g250
g2
Ntp1310
Rp1311
(dp1312
g254
g94
sg256
(dp1313
g297
S'http://www.w3.org/2001/XMLSchema#string'
p1314
ssg260
g1218
sg272
S'\n    '
p1315
sg262
(lp1316
sbag0
(g250
g2
Ntp1317
Rp1318
(dp1319
g256
(dp1320
g279
S'#Protein1'
p1321
ssg260
g1202
sg272
S'\n    '
p1322
sg262
(lp1323
sbag0
(g250
g2
Ntp1324
Rp1325
(dp1326
g256
(dp1327
g279
S'#Catalysis1'
p1328
ssg260
g1210
sg272
S'\n  '
p1329
sg262
(lp1330
sbasbag0
(g250
g2
Ntp1331
Rp1332
(dp1333
g254
S'\n    '
p1334
sg256
(dp1335
g289
g80
ssg260
S'{http://www.biopax.org/release/biopax-level3.owl#}ModificationFeature'
p1336
sg272
S'\n\n  '
p1337
sg262
(lp1338
g0
(g250
g2
Ntp1339
Rp1340
(dp1341
g256
(dp1342
g279
S'#SequenceSite1'
p1343
ssg260
S'{http://www.biopax.org/release/biopax-level3.owl#}featureLocation'
p1344
sg272
S'\n    '
p1345
sg262
(lp1346
sbag0
(g250
g2
Ntp1347
Rp1348
(dp1349
g256
(dp1350
g279
S'#SequenceModificationVocabulary1'
p1351
ssg260
S'{http://www.biopax.org/release/biopax-level3.owl#}modificationType'
p1352
sg272
S'\n  '
p1353
sg262
(lp1354
sbasbag0
(g250
g2
Ntp1355
Rp1356
(dp1357
g254
S'\n    '
p1358
sg256
(dp1359
g289
g33
ssg260
g526
sg272
S'\n\n  '
p1360
sg262
(lp1361
g0
(g250
g2
Ntp1362
Rp1363
(dp1364
g256
(dp1365
g279
S'#BioSource2'
p1366
ssg260
g371
sg272
S'\n    '
p1367
sg262
(lp1368
sbag0
(g250
g2
Ntp1369
Rp1370
(dp1371
g254
S'UniProt:Q76RF1'
p1372
sg256
(dp1373
g297
S'http://www.w3.org/2001/XMLSchema#string'
p1374
ssg260
g299
sg272
S'\n    '
p1375
sg262
(lp1376
sbag0
(g250
g2
Ntp1377
Rp1378
(dp1379
g254
g38
sg256
(dp1380
g297
S'http://www.w3.org/2001/XMLSchema#string'
p1381
ssg260
g299
sg272
S'\n  '
p1382
sg262
(lp1383
sbasbag0
(g250
g2
Ntp1384
Rp1385
(dp1386
g254
S'\n    '
p1387
sg256
(dp1388
g289
g55
ssg260
g290
sg272
S'\n\n\n'
p1389
sg262
(lp1390
g0
(g250
g2
Ntp1391
Rp1392
(dp1393
g254
g36
sg256
(dp1394
g297
S'http://www.w3.org/2001/XMLSchema#string'
p1395
ssg260
g299
sg272
S'\n    '
p1396
sg262
(lp1397
sbag0
(g250
g2
Ntp1398
Rp1399
(dp1400
g256
(dp1401
g279
S'#UnificationXref98992'
p1402
ssg260
g570
sg272
S'\n  '
p1403
sg262
(lp1404
sbasbasbsbsS'PhysicalEntities'
p1405
(dp1406
g955
(dp1407
g20
S'CellularLocationVocabulary1'
p1408
sg22
g962
sg27
(dp1409
g29
(lp1410
ssssS'SmallMolecules'
p1411
(dp1412
g648
(dp1413
g20
S'CellularLocationVocabulary1'
p1414
sg22
g655
sg27
g143
sssS'root'
p1415
g252
sS'BiochemicalReactions'
p1416
(dp1417
g1129
(dp1418
g22
g1184
sS'right'
p1419
(lp1420
S'Complex1'
p1421
asg27
(dp1422
g29
g1167
sS'eCNumber'
p1423
g1175
ssg63
(lp1424
S'Protein1'
p1425
aS'PhysicalEntity1'
p1426
asssb.