((dp0
S'DAPB_ECOK1'
p1
(dp2
S'Pfam'
p3
(lp4
S'PF05173'
p5
aS'PF01113'
p6
asS'GeneRefs'
p7
(dp8
S'ORFNames'
p9
(lp10
S'APECO1_1951'
p11
asS'AltNames'
p12
(lp13
sS'OrderedLocusNames'
p14
(lp15
S'Ecok1_00260'
p16
asS'Names'
p17
(lp18
S'dapB'
p19
assS'KEGG'
p20
(lp21
S'ecv:APECO1_1951'
p22
asS'EMBL'
p23
(lp24
(dp25
S'status'
p26
S'-'
p27
sS'type'
p28
S'Genomic_DNA'
p29
sS'Accession'
p30
S'CP000468'
p31
sS'ID'
p32
S'ABI99519.1'
p33
sasS'SUPFAM'
p34
(lp35
sS'MGI'
p36
(lp37
sS'TaxID'
p38
S'405955'
p39
sg32
g1
sS'Acnum'
p40
(lp41
S'A1A780'
p42
asS'Ensembl'
p43
(lp44
sS'GO'
p45
(lp46
S'0005737'
p47
aS'0008839'
p48
aS'0051287'
p49
aS'0050661'
p50
aS'0016726'
p51
aS'0019877'
p52
aS'0009089'
p53
asS'RefSeq'
p54
(lp55
sS'PDB'
p56
(lp57
sS'GeneID'
p58
(lp59
sg17
(dp60
S'Full'
p61
S'4-hydroxy-tetrahydrodipicolinate reductase '
p62
sg12
(lp63
S'HTPA reductase '
p64
asssS'DAPD_ECOL6'
p65
(dp66
g3
(lp67
S'PF00132'
p68
aS'PF14602'
p69
aS'PF14805'
p70
asg7
(dp71
g9
(lp72
sg12
(lp73
sg14
(lp74
S'c0201'
p75
asg17
(lp76
S'dapD'
p77
assg20
(lp78
sg23
(lp79
(dp80
g26
g27
sg28
S''
p81
sg30
S'AE014075'
p82
sg32
S'AAN78695.1'
p83
sasg34
(lp84
S'SSF51161'
p85
aS'SSF51161'
p86
asg36
(lp87
sg38
S'199310'
p88
sg32
g65
sg40
(lp89
S'Q8FL11'
p90
asg43
(lp91
S'ENST00000543831'
p92
aS'ENSP00000445122'
p93
aS'ENSG00000203859. [P26439-1]'
p94
asg45
(lp95
S'0005737'
p96
aS'0008666'
p97
aS'0019877'
p98
aS'0009089'
p99
asg54
(lp100
sg56
(lp101
S'3FSX'
p102
asg58
(lp103
S'2931683'
p104
asg17
(dp105
g61
S'Steroid Delta-isomerase'
p106
sg12
(lp107
S'Tetrahydrodipicolinate N-succinyltransferase '
p108
aS'THDP succinyltransferase '
p109
aS'THP succinyltransferase '
p110
aS'Tetrahydropicolinate succinylase '
p111
aS'3-beta-HSD I'
p112
aS'3-beta-hydroxy-5-ene steroid dehydrogenase'
p113
aS'Progesterone reductase'
p114
aS'Delta-5-3-ketosteroid isomerase'
p115
asss(dp116
g33
g1
sg31
g1
sg16
g1
sg82
g65
sg11
g1
sg90
g65
sg94
g65
sg19
g1
sg92
g65
sg22
g1
sg75
g65
sg42
g1
sg93
g65
sg83
g65
sg77
g65
stp117
.