((dp0
S'DAPB_ECOK1'
p1
(dp2
S'Pfam'
p3
(lp4
S'PF05173'
p5
aS'PF01113'
p6
asS'GeneRefs'
p7
(dp8
S'ORFNames'
p9
(lp10
S'APECO1_1951'
p11
asS'OrderedLocusNames'
p12
(lp13
S'Ecok1_00260'
p14
asS'Names'
p15
(lp16
S'dapB {ECO:0000255|HAMAP-Rule:MF_00102}'
p17
assS'KEGG'
p18
(lp19
S'ecv:APECO1_1951'
p20
asS'EMBL'
p21
(lp22
(dp23
S'status'
p24
S'-'
p25
sS'type'
p26
S'Genomic_DNA'
p27
sS'Accession'
p28
S'CP000468'
p29
sS'ID'
p30
S'ABI99519.1'
p31
sasS'SUPFAM'
p32
(lp33
sS'TaxID'
p34
S'405955'
p35
sg30
g1
sS'Acnum'
p36
(lp37
S'A1A780'
p38
asS'Ensembl'
p39
(lp40
sS'GO'
p41
(lp42
S'0005737'
p43
aS'0008839'
p44
aS'0051287'
p45
aS'0050661'
p46
aS'0016726'
p47
aS'0019877'
p48
aS'0009089'
p49
asS'PDB'
p50
(lp51
sS'GeneID'
p52
(lp53
sg15
(dp54
S'Full'
p55
S'4-hydroxy-tetrahydrodipicolinate reductase {ECO:0000255|HAMAP-Rule:MF_00102}'
p56
sS'AltNames'
p57
(lp58
S'HTPA reductase {ECO:0000255|HAMAP-Rule:MF_00102}'
p59
asssS'DAPD_ECOL6'
p60
(dp61
g3
(lp62
S'PF00132'
p63
aS'PF14602'
p64
aS'PF14805'
p65
asg7
(dp66
g9
(lp67
sg12
(lp68
S'c0201'
p69
asg15
(lp70
S'dapD {ECO:0000255|HAMAP-Rule:MF_00811}'
p71
assg18
(lp72
sg21
(lp73
(dp74
g24
g25
sg26
S''
p75
sg28
S'AE014075'
p76
sg30
S'AAN78695.1'
p77
sasg32
(lp78
S'SSF51161'
p79
aS'SSF51161'
p80
asg34
S'199310'
p81
sg30
g60
sg36
(lp82
S'Q8FL11'
p83
asg39
(lp84
S'ENST00000543831'
p85
aS'ENSP00000445122'
p86
aS'ENSG00000203859. [P26439-1]'
p87
asg41
(lp88
S'0005737'
p89
aS'0008666'
p90
aS'0019877'
p91
aS'0009089'
p92
asg50
(lp93
S'3FSX'
p94
asg52
(lp95
S'2931683'
p96
asg15
(dp97
g55
S'Steroid Delta-isomerase'
p98
sg57
(lp99
S'Tetrahydrodipicolinate N-succinyltransferase {ECO:0000255|HAMAP-Rule:MF_00811}'
p100
aS'THDP succinyltransferase {ECO:0000255|HAMAP-Rule:MF_00811}'
p101
aS'THP succinyltransferase {ECO:0000255|HAMAP-Rule:MF_00811}'
p102
aS'Tetrahydropicolinate succinylase {ECO:0000255|HAMAP-Rule:MF_00811}'
p103
aS'3-beta-HSD I'
p104
aS'3-beta-hydroxy-5-ene steroid dehydrogenase'
p105
aS'Progesterone reductase'
p106
aS'Delta-5-3-ketosteroid isomerase'
p107
asss(dp108
g31
g1
sg29
g1
sg14
g1
sg76
g60
sg11
g1
sg83
g60
sg17
g1
sg71
g60
sg87
g60
sg85
g60
sg20
g1
sg38
g1
sg86
g60
sg77
g60
sg69
g60
stp109
.